target datalayout = "e-m:e-p270:32:32-p271:32:32-p272:64:64-i64:64-i128:128-f80:128-n8:16:32:64-S128"
target triple = "x86_64-pc-linux-gnu"

%"class.std::__cxx11::basic_string" = type { %"struct.std::__cxx11::basic_string<char>::_Alloc_hider", i64, %union.anon }
%"struct.std::__cxx11::basic_string<char>::_Alloc_hider" = type { ptr }
%union.anon = type { i64, [8 x i8] }
%"struct.std::_Optional_base.284" = type { %"struct.std::_Optional_payload.286" }
%"struct.std::_Optional_payload.286" = type { %"struct.std::_Optional_payload.base.290", [7 x i8] }
%"struct.std::_Optional_payload.base.290" = type { %"struct.std::_Optional_payload_base.base.289" }
%"struct.std::_Optional_payload_base.base.289" = type <{ %"union.std::_Optional_payload_base<(anonymous namespace)::Defer>::_Storage", i8 }>
%"union.std::_Optional_payload_base<(anonymous namespace)::Defer>::_Storage" = type { %"struct.(anonymous namespace)::Defer" }
%"struct.(anonymous namespace)::Defer" = type { %"class.std::__cxx11::basic_string", %"class.std::__cxx11::basic_string", ptr }
%"struct.std::_Optional_payload_base.288" = type <{ %"union.std::_Optional_payload_base<(anonymous namespace)::Defer>::_Storage", i8, [7 x i8] }>

; Function Attrs: mustprogress nounwind uwtable
define internal void @_ZN12_GLOBAL__N_15DeferC2EOS0_(ptr noundef nonnull align 8 dereferenceable(72) %0, ptr noundef nonnull align 8 dereferenceable(72) %1) unnamed_addr #5 align 2 {
  %3 = alloca ptr, align 8
  %4 = alloca ptr, align 8
  store ptr %0, ptr %3, align 8
  store ptr %1, ptr %4, align 8
  %5 = load ptr, ptr %3, align 8
  %6 = getelementptr inbounds %"struct.(anonymous namespace)::Defer", ptr %5, i32 0, i32 0
  %7 = load ptr, ptr %4, align 8
  %8 = getelementptr inbounds %"struct.(anonymous namespace)::Defer", ptr %7, i32 0, i32 0
  call void @_ZNSt7__cxx1112basic_stringIcSt11char_traitsIcESaIcEEC1EOS4_(ptr noundef nonnull align 8 dereferenceable(32) %6, ptr noundef nonnull align 8 dereferenceable(32) %8) #3
  %9 = getelementptr inbounds %"struct.(anonymous namespace)::Defer", ptr %5, i32 0, i32 1
  %10 = load ptr, ptr %4, align 8
  %11 = getelementptr inbounds %"struct.(anonymous namespace)::Defer", ptr %10, i32 0, i32 1
  call void @_ZNSt7__cxx1112basic_stringIcSt11char_traitsIcESaIcEEC1EOS4_(ptr noundef nonnull align 8 dereferenceable(32) %9, ptr noundef nonnull align 8 dereferenceable(32) %11) #3
  %12 = getelementptr inbounds %"struct.(anonymous namespace)::Defer", ptr %5, i32 0, i32 2
  %13 = load ptr, ptr %4, align 8
  %14 = getelementptr inbounds %"struct.(anonymous namespace)::Defer", ptr %13, i32 0, i32 2
  %15 = load ptr, ptr %14, align 8
  store ptr %15, ptr %12, align 8
  ret void
}

; Function Attrs: mustprogress nounwind uwtable
define internal void @_ZSt10_ConstructIN12_GLOBAL__N_15DeferEJS1_EEvPT_DpOT0_(ptr noundef %0, ptr noundef nonnull align 8 dereferenceable(72) %1) #5 {
  %3 = alloca ptr, align 8
  %4 = alloca ptr, align 8
  store ptr %0, ptr %3, align 8
  store ptr %1, ptr %4, align 8
  %5 = load ptr, ptr %3, align 8
  %6 = load ptr, ptr %4, align 8
  call void @_ZN12_GLOBAL__N_15DeferC2EOS0_(ptr noundef nonnull align 8 dereferenceable(72) %5, ptr noundef nonnull align 8 dereferenceable(72) %6) #3
  ret void
}

; Function Attrs: mustprogress nounwind uwtable
define internal void @_ZNSt22_Optional_payload_baseIN12_GLOBAL__N_15DeferEE12_M_constructIJS1_EEEvDpOT_(ptr noundef nonnull align 8 dereferenceable(73) %0, ptr noundef nonnull align 8 dereferenceable(72) %1) #5 align 2 personality ptr @__gxx_personality_v0 {
  %3 = alloca ptr, align 8
  %4 = alloca ptr, align 8
  store ptr %0, ptr %3, align 8
  store ptr %1, ptr %4, align 8
  %5 = load ptr, ptr %3, align 8
  %6 = getelementptr inbounds %"struct.std::_Optional_payload_base.288", ptr %5, i32 0, i32 0
  %7 = load ptr, ptr %4, align 8
  invoke void @_ZSt10_ConstructIN12_GLOBAL__N_15DeferEJS1_EEvPT_DpOT0_(ptr noundef %6, ptr noundef nonnull align 8 dereferenceable(72) %7)
          to label %8 unwind label %10

8:                                                ; preds = %2
  %9 = getelementptr inbounds %"struct.std::_Optional_payload_base.288", ptr %5, i32 0, i32 1
  store i8 1, ptr %9, align 8
  ret void

10:                                               ; preds = %2
  %11 = landingpad { ptr, i32 }
          catch ptr null
  %12 = extractvalue { ptr, i32 } %11, 0
  call void @__clang_call_terminate(ptr %12) #15
  unreachable
}

; Function Attrs: mustprogress nounwind uwtable
define internal noundef nonnull align 8 dereferenceable(72) ptr @_ZNSt22_Optional_payload_baseIN12_GLOBAL__N_15DeferEE6_M_getEv(ptr noundef nonnull align 8 dereferenceable(73) %0) #5 align 2 {
  %2 = alloca ptr, align 8
  store ptr %0, ptr %2, align 8
  %3 = load ptr, ptr %2, align 8
  %4 = getelementptr inbounds %"struct.std::_Optional_payload_base.288", ptr %3, i32 0, i32 0
  ret ptr %4
}

; Function Attrs: mustprogress nounwind uwtable
define internal void @_ZNSt22_Optional_payload_baseIN12_GLOBAL__N_15DeferEE8_StorageIS1_Lb0EEC2Ev(ptr noundef nonnull align 8 dereferenceable(72) %0) unnamed_addr #5 align 2 {
  %2 = alloca ptr, align 8
  store ptr %0, ptr %2, align 8
  ret void
}

; Function Attrs: mustprogress nounwind uwtable
define internal void @_ZNSt22_Optional_payload_baseIN12_GLOBAL__N_15DeferEEC2EbOS2_(ptr noundef nonnull align 8 dereferenceable(73) %0, i1 noundef zeroext %1, ptr noundef nonnull align 8 dereferenceable(73) %2) unnamed_addr #5 align 2 {
  %4 = alloca ptr, align 8
  %5 = alloca i8, align 1
  %6 = alloca ptr, align 8
  store ptr %0, ptr %4, align 8
  %7 = zext i1 %1 to i8
  store i8 %7, ptr %5, align 1
  store ptr %2, ptr %6, align 8
  %8 = load ptr, ptr %4, align 8
  %9 = getelementptr inbounds %"struct.std::_Optional_payload_base.288", ptr %8, i32 0, i32 0
  call void @_ZNSt22_Optional_payload_baseIN12_GLOBAL__N_15DeferEE8_StorageIS1_Lb0EEC2Ev(ptr noundef nonnull align 8 dereferenceable(72) %9) #3
  %10 = getelementptr inbounds %"struct.std::_Optional_payload_base.288", ptr %8, i32 0, i32 1
  store i8 0, ptr %10, align 8
  %11 = load ptr, ptr %6, align 8
  %12 = getelementptr inbounds %"struct.std::_Optional_payload_base.288", ptr %11, i32 0, i32 1
  %13 = load i8, ptr %12, align 8
  %14 = trunc i8 %13 to i1
  br i1 %14, label %15, label %18

15:                                               ; preds = %3
  %16 = load ptr, ptr %6, align 8
  %17 = call noundef nonnull align 8 dereferenceable(72) ptr @_ZNSt22_Optional_payload_baseIN12_GLOBAL__N_15DeferEE6_M_getEv(ptr noundef nonnull align 8 dereferenceable(73) %16) #3
  call void @_ZNSt22_Optional_payload_baseIN12_GLOBAL__N_15DeferEE12_M_constructIJS1_EEEvDpOT_(ptr noundef nonnull align 8 dereferenceable(73) %8, ptr noundef nonnull align 8 dereferenceable(72) %17) #3
  br label %18

18:                                               ; preds = %15, %3
  ret void
}

; Function Attrs: mustprogress uwtable
define internal void @_ZNSt17_Optional_payloadIN12_GLOBAL__N_15DeferELb1ELb0ELb0EECI2St22_Optional_payload_baseIS1_EEbOS3_IS1_E(ptr noundef nonnull align 8 dereferenceable(73) %0, i1 noundef zeroext %1, ptr noundef nonnull align 8 dereferenceable(73) %2) unnamed_addr #4 align 2 {
  %4 = alloca ptr, align 8
  %5 = alloca i8, align 1
  %6 = alloca ptr, align 8
  store ptr %0, ptr %4, align 8
  %7 = zext i1 %1 to i8
  store i8 %7, ptr %5, align 1
  store ptr %2, ptr %6, align 8
  %8 = load ptr, ptr %4, align 8
  %9 = load i8, ptr %5, align 1
  %10 = trunc i8 %9 to i1
  %11 = load ptr, ptr %6, align 8
  call void @_ZNSt22_Optional_payload_baseIN12_GLOBAL__N_15DeferEEC2EbOS2_(ptr noundef nonnull align 8 dereferenceable(73) %8, i1 noundef zeroext %10, ptr noundef nonnull align 8 dereferenceable(73) %11)
  ret void
}

; Function Attrs: noreturn nounwind uwtable
define linkonce_odr hidden void @__clang_call_terminate(ptr noundef %0) #7 comdat {
  %2 = call ptr @__cxa_begin_catch(ptr %0) #3
  call void @_ZSt9terminatev() #15
  unreachable
}

; Function Attrs: mustprogress uwtable
define internal void @_ZNSt17_Optional_payloadIN12_GLOBAL__N_15DeferELb0ELb0ELb0EECI2St22_Optional_payload_baseIS1_EEbOS3_IS1_E(ptr noundef nonnull align 8 dereferenceable(73) %0, i1 noundef zeroext %1, ptr noundef nonnull align 8 dereferenceable(73) %2) unnamed_addr #4 align 2 {
  %4 = alloca ptr, align 8
  %5 = alloca i8, align 1
  %6 = alloca ptr, align 8
  store ptr %0, ptr %4, align 8
  %7 = zext i1 %1 to i8
  store i8 %7, ptr %5, align 1
  store ptr %2, ptr %6, align 8
  %8 = load ptr, ptr %4, align 8
  %9 = load i8, ptr %5, align 1
  %10 = trunc i8 %9 to i1
  %11 = load ptr, ptr %6, align 8
  call void @_ZNSt17_Optional_payloadIN12_GLOBAL__N_15DeferELb1ELb0ELb0EECI2St22_Optional_payload_baseIS1_EEbOS3_IS1_E(ptr noundef nonnull align 8 dereferenceable(73) %8, i1 noundef zeroext %10, ptr noundef nonnull align 8 dereferenceable(73) %11)
  ret void
}

; Function Attrs: mustprogress nounwind uwtable
define internal void @_ZNSt14_Optional_baseIN12_GLOBAL__N_15DeferELb0ELb0EEC2EOS2_(ptr noundef nonnull align 8 dereferenceable(80) %0, ptr noundef nonnull align 8 dereferenceable(80) %1) unnamed_addr #5 align 2 personality ptr @__gxx_personality_v0 {
  %3 = alloca ptr, align 8
  %4 = alloca ptr, align 8
  store ptr %0, ptr %3, align 8
  store ptr %1, ptr %4, align 8
  %5 = load ptr, ptr %3, align 8
  %6 = getelementptr inbounds %"struct.std::_Optional_base.284", ptr %5, i32 0, i32 0
  %7 = load ptr, ptr %4, align 8
  %8 = getelementptr inbounds %"struct.std::_Optional_base.284", ptr %7, i32 0, i32 0
  %9 = getelementptr inbounds %"struct.std::_Optional_payload_base.288", ptr %8, i32 0, i32 1
  %10 = load i8, ptr %9, align 8
  %11 = trunc i8 %10 to i1
  %12 = load ptr, ptr %4, align 8
  %13 = getelementptr inbounds %"struct.std::_Optional_base.284", ptr %12, i32 0, i32 0
  invoke void @_ZNSt17_Optional_payloadIN12_GLOBAL__N_15DeferELb0ELb0ELb0EECI2St22_Optional_payload_baseIS1_EEbOS3_IS1_E(ptr noundef nonnull align 8 dereferenceable(73) %6, i1 noundef zeroext %11, ptr noundef nonnull align 8 dereferenceable(73) %13)
          to label %14 unwind label %15

14:                                               ; preds = %2
  ret void

15:                                               ; preds = %2
  %16 = landingpad { ptr, i32 }
          catch ptr null
  %17 = extractvalue { ptr, i32 } %16, 0
  call void @__clang_call_terminate(ptr %17) #15
  unreachable
}

; Function Attrs: mustprogress nounwind uwtable
define internal void @_ZNSt8optionalIN12_GLOBAL__N_15DeferEEC2EOS2_(ptr noundef nonnull align 8 dereferenceable(80) %0, ptr noundef nonnull align 8 dereferenceable(80) %1) unnamed_addr #5 align 2 {
  %3 = alloca ptr, align 8
  %4 = alloca ptr, align 8
  store ptr %0, ptr %3, align 8
  store ptr %1, ptr %4, align 8
  %5 = load ptr, ptr %3, align 8
  %6 = load ptr, ptr %4, align 8
  call void @_ZNSt14_Optional_baseIN12_GLOBAL__N_15DeferELb0ELb0EEC2EOS2_(ptr noundef nonnull align 8 dereferenceable(80) %5, ptr noundef nonnull align 8 dereferenceable(80) %6) #3
  ret void
}