; Function Attrs: mustprogress nounwind uwtable
define internal fastcc void @_ZNSt8optionalIN12_GLOBAL__N_15DeferEEC2EOS2_(ptr noundef nonnull align 8 dereferenceable(80) %0, ptr noundef nonnull align 8 dereferenceable(80) %1) unnamed_addr #5 align 2 personality ptr @__gxx_personality_v0 {
  %3 = getelementptr inbounds i8, ptr %1, i64 72
  %4 = getelementptr inbounds i8, ptr %0, i64 72
  store i8 0, ptr %4, align 8
  %5 = load i8, ptr %3, align 8
  %6 = and i8 %5, 1
  %.not.i.i.i.i = icmp eq i8 %6, 0
  br i1 %.not.i.i.i.i, label %_ZNSt14_Optional_baseIN12_GLOBAL__N_15DeferELb0ELb0EEC2EOS2_.exit, label %7

7:                                                ; preds = %2
  tail call void @_ZNSt7__cxx1112basic_stringIcSt11char_traitsIcESaIcEEC1EOS4_(ptr noundef nonnull align 8 dereferenceable(32) %0, ptr noundef nonnull align 8 dereferenceable(32) %1) #18
  %8 = getelementptr inbounds i8, ptr %0, i64 32
  %9 = getelementptr inbounds i8, ptr %1, i64 32
  tail call void @_ZNSt7__cxx1112basic_stringIcSt11char_traitsIcESaIcEEC1EOS4_(ptr noundef nonnull align 8 dereferenceable(32) %8, ptr noundef nonnull align 8 dereferenceable(32) %9) #18
  %10 = getelementptr inbounds i8, ptr %0, i64 64
  %11 = getelementptr inbounds i8, ptr %1, i64 64
  %12 = load ptr, ptr %11, align 8
  store ptr %12, ptr %10, align 8
  store i8 1, ptr %4, align 8
  br label %_ZNSt14_Optional_baseIN12_GLOBAL__N_15DeferELb0ELb0EEC2EOS2_.exit

_ZNSt14_Optional_baseIN12_GLOBAL__N_15DeferELb0ELb0EEC2EOS2_.exit: ; preds = %2, %7
  ret void
}